; Function Attrs: nounwind uwtable
define hidden i64 @je_decay_ns_until_purge(ptr noundef %0, i64 noundef %1, i64 noundef %2) local_unnamed_addr #0 {
  %4 = getelementptr inbounds nuw i8, ptr %0, i64 120
  %5 = load atomic i64, ptr %4 monotonic, align 8
  %6 = icmp sgt i64 %5, 0
  br i1 %6, label %7, label %.loopexit

7:                                                ; preds = %3
  %8 = getelementptr inbounds nuw i8, ptr %0, i64 128
  %9 = tail call i64 @je_nstime_ns(ptr noundef nonnull %8) #9
  %10 = icmp eq i64 %1, 0
  br i1 %10, label %.preheader75, label %.thread

.preheader75:                                     ; preds = %7
  %11 = getelementptr inbounds nuw i8, ptr %0, i64 176
  br label %12

12:                                               ; preds = %.preheader75, %15
  %indvars.iv = phi i64 [ 0, %.preheader75 ], [ %indvars.iv.next, %15 ]
  %13 = getelementptr inbounds nuw [200 x i64], ptr %11, i64 0, i64 %indvars.iv
  %14 = load i64, ptr %13, align 8, !tbaa !13
  %.not = icmp eq i64 %14, 0
  br i1 %.not, label %15, label %.thread

15:                                               ; preds = %12
  %indvars.iv.next = add nuw nsw i64 %indvars.iv, 1
  %exitcond.not = icmp eq i64 %indvars.iv.next, 200
  br i1 %exitcond.not, label %.loopexit, label %12, !llvm.loop !23

.thread:                                          ; preds = %12, %7
  %.not59 = icmp ugt i64 %1, %2
  br i1 %.not59, label %18, label %16

16:                                               ; preds = %.thread
  %17 = mul i64 %9, 200
  br label %.loopexit

18:                                               ; preds = %.thread
  %19 = getelementptr inbounds nuw i8, ptr %0, i64 176
  br label %20

20:                                               ; preds = %20, %18
  %.018.i = phi i64 [ 0, %18 ], [ %26, %20 ]
  %.01517.i = phi i64 [ 0, %18 ], [ %27, %20 ]
  %21 = getelementptr inbounds nuw [200 x i64], ptr %19, i64 0, i64 %.01517.i
  %22 = load i64, ptr %21, align 8, !tbaa !13
  %23 = getelementptr inbounds nuw [200 x i64], ptr @h_steps, i64 0, i64 %.01517.i
  %24 = load i64, ptr %23, align 8, !tbaa !13
  %25 = mul i64 %24, %22
  %26 = add i64 %25, %.018.i
  %27 = add nuw nsw i64 %.01517.i, 1
  %exitcond.not.i = icmp eq i64 %27, 2
  br i1 %exitcond.not.i, label %.preheader.i, label %20, !llvm.loop !24

.preheader.i:                                     ; preds = %20, %.preheader.i
  %.121.i = phi i64 [ %37, %.preheader.i ], [ %26, %20 ]
  %.11620.i = phi i64 [ %38, %.preheader.i ], [ 2, %20 ]
  %28 = getelementptr inbounds nuw [200 x i64], ptr %19, i64 0, i64 %.11620.i
  %29 = load i64, ptr %28, align 8, !tbaa !13
  %30 = getelementptr inbounds nuw [200 x i64], ptr @h_steps, i64 0, i64 %.11620.i
  %31 = load i64, ptr %30, align 8, !tbaa !13
  %32 = add nsw i64 %.11620.i, -2
  %33 = getelementptr inbounds nuw [200 x i64], ptr @h_steps, i64 0, i64 %32
  %34 = load i64, ptr %33, align 8, !tbaa !13
  %35 = sub i64 %31, %34
  %36 = mul i64 %35, %29
  %37 = add i64 %36, %.121.i
  %38 = add nuw nsw i64 %.11620.i, 1
  %exitcond26.not.i = icmp eq i64 %38, 200
  br i1 %exitcond26.not.i, label %decay_npurge_after_interval.exit, label %.preheader.i, !llvm.loop !25

decay_npurge_after_interval.exit:                 ; preds = %.preheader.i
  %39 = lshr i64 %37, 24
  %40 = icmp ugt i64 %39, %2
  br i1 %40, label %41, label %.preheader74

41:                                               ; preds = %decay_npurge_after_interval.exit
  %42 = shl i64 %9, 1
  br label %.loopexit

.preheader74:                                     ; preds = %decay_npurge_after_interval.exit, %.preheader74
  %.018.i60 = phi i64 [ %48, %.preheader74 ], [ 0, %decay_npurge_after_interval.exit ]
  %.01517.i61 = phi i64 [ %49, %.preheader74 ], [ 0, %decay_npurge_after_interval.exit ]
  %43 = getelementptr inbounds nuw [200 x i64], ptr %19, i64 0, i64 %.01517.i61
  %44 = load i64, ptr %43, align 8, !tbaa !13
  %45 = getelementptr inbounds nuw [200 x i64], ptr @h_steps, i64 0, i64 %.01517.i61
  %46 = load i64, ptr %45, align 8, !tbaa !13
  %47 = mul i64 %46, %44
  %48 = add i64 %47, %.018.i60
  %49 = add nuw nsw i64 %.01517.i61, 1
  %exitcond.not.i62 = icmp eq i64 %49, 200
  br i1 %exitcond.not.i62, label %decay_npurge_after_interval.exit64, label %.preheader74, !llvm.loop !24

decay_npurge_after_interval.exit64:               ; preds = %.preheader74
  %50 = lshr i64 %48, 24
  %51 = icmp ult i64 %50, %2
  br i1 %51, label %54, label %.preheader

.preheader:                                       ; preds = %decay_npurge_after_interval.exit64
  %52 = add nuw nsw i64 %39, %2
  %53 = icmp ult i64 %52, %50
  br i1 %53, label %.lr.ph.i, label %._crit_edge

54:                                               ; preds = %decay_npurge_after_interval.exit64
  %55 = mul i64 %9, 200
  br label %.loopexit

.lr.ph.i:                                         ; preds = %.preheader, %decay_npurge_after_interval.exit72
  %.04585 = phi i64 [ %..045, %decay_npurge_after_interval.exit72 ], [ %50, %.preheader ]
  %.04784 = phi i64 [ %.047., %decay_npurge_after_interval.exit72 ], [ %39, %.preheader ]
  %.04983 = phi i64 [ %..049, %decay_npurge_after_interval.exit72 ], [ 200, %.preheader ]
  %.05182 = phi i64 [ %.051., %decay_npurge_after_interval.exit72 ], [ 2, %.preheader ]
  %56 = add nuw i64 %.04983, %.05182
  %57 = lshr i64 %56, 1
  br label %59

.preheader.i68:                                   ; preds = %59
  %58 = icmp ult i64 %56, 400
  br i1 %58, label %.lr.ph22.i, label %decay_npurge_after_interval.exit72

59:                                               ; preds = %59, %.lr.ph.i
  %.018.i65 = phi i64 [ 0, %.lr.ph.i ], [ %65, %59 ]
  %.01517.i66 = phi i64 [ 0, %.lr.ph.i ], [ %66, %59 ]
  %60 = getelementptr inbounds nuw [200 x i64], ptr %19, i64 0, i64 %.01517.i66
  %61 = load i64, ptr %60, align 8, !tbaa !13
  %62 = getelementptr inbounds nuw [200 x i64], ptr @h_steps, i64 0, i64 %.01517.i66
  %63 = load i64, ptr %62, align 8, !tbaa !13
  %64 = mul i64 %63, %61
  %65 = add i64 %64, %.018.i65
  %66 = add nuw nsw i64 %.01517.i66, 1
  %exitcond.not.i67 = icmp eq i64 %66, %57
  br i1 %exitcond.not.i67, label %.preheader.i68, label %59, !llvm.loop !24

.lr.ph22.i:                                       ; preds = %.preheader.i68, %.lr.ph22.i
  %.121.i69 = phi i64 [ %76, %.lr.ph22.i ], [ %65, %.preheader.i68 ]
  %.11620.i70 = phi i64 [ %77, %.lr.ph22.i ], [ %57, %.preheader.i68 ]
  %67 = getelementptr inbounds nuw [200 x i64], ptr %19, i64 0, i64 %.11620.i70
  %68 = load i64, ptr %67, align 8, !tbaa !13
  %69 = getelementptr inbounds nuw [200 x i64], ptr @h_steps, i64 0, i64 %.11620.i70
  %70 = load i64, ptr %69, align 8, !tbaa !13
  %71 = sub nuw nsw i64 %.11620.i70, %57
  %72 = getelementptr inbounds nuw [200 x i64], ptr @h_steps, i64 0, i64 %71
  %73 = load i64, ptr %72, align 8, !tbaa !13
  %74 = sub i64 %70, %73
  %75 = mul i64 %74, %68
  %76 = add i64 %75, %.121.i69
  %77 = add nuw i64 %.11620.i70, 1
  %exitcond26.not.i71 = icmp eq i64 %77, 200
  br i1 %exitcond26.not.i71, label %decay_npurge_after_interval.exit72, label %.lr.ph22.i, !llvm.loop !25

decay_npurge_after_interval.exit72:               ; preds = %.lr.ph22.i, %.preheader.i68
  %.1.lcssa.i = phi i64 [ %65, %.preheader.i68 ], [ %76, %.lr.ph22.i ]
  %78 = lshr i64 %.1.lcssa.i, 24
  %79 = icmp ugt i64 %78, %2
  %.051. = select i1 %79, i64 %.05182, i64 %57
  %..049 = select i1 %79, i64 %57, i64 %.04983
  %.047. = select i1 %79, i64 %.04784, i64 %78
  %..045 = select i1 %79, i64 %78, i64 %.04585
  %80 = add nuw nsw i64 %.047., %2
  %81 = icmp ult i64 %80, %..045
  %82 = add nuw i64 %.051., 2
  %83 = icmp ult i64 %82, %..049
  %84 = select i1 %81, i1 %83, i1 false
  br i1 %84, label %.lr.ph.i, label %._crit_edge.loopexit, !llvm.loop !26

._crit_edge.loopexit:                             ; preds = %decay_npurge_after_interval.exit72
  %85 = add nuw i64 %..049, %.051.
  br label %._crit_edge

._crit_edge:                                      ; preds = %._crit_edge.loopexit, %.preheader
  %86 = phi i64 [ 202, %.preheader ], [ %85, %._crit_edge.loopexit ]
  %87 = mul i64 %86, %9
  %88 = lshr i64 %87, 1
  br label %.loopexit

.loopexit:                                        ; preds = %15, %16, %._crit_edge, %54, %41, %3
  %.0 = phi i64 [ -1, %3 ], [ %17, %16 ], [ %42, %41 ], [ %55, %54 ], [ %88, %._crit_edge ], [ -1, %15 ]
  ret i64 %.0
}